Certificate:
    Data:
        Version: 3 (0x2)
        Serial Number:
            6e:47:a9:c5:4b:47:0c:0d:ec:33:d0:89:b9:1c:f4:e1
        Signature Algorithm: sha384WithRSAEncryption
        Issuer: C=US, O=Google Trust Services LLC, CN=GTS Root R1
        Validity
            Not Before: Jun 22 00:00:00 2016 GMT
            Not After : Jun 22 00:00:00 2036 GMT
        Subject: C=US, O=Google Trust Services LLC, CN=GTS Root R1
        Subject Public Key Info:
            Public Key Algorithm: rsaEncryption
                Public-Key: (4096 bit)
                Modulus:
                    00:b6:11:02:8b:1e:e3:a1:77:9b:3b:dc:bf:94:3e:
                    b7:95:a7:40:3c:a1:fd:82:f9:7d:32:06:82:71:f6:
                    f6:8c:7f:fb:e8:db:bc:6a:2e:97:97:a3:8c:4b:f9:
                    2b:f6:b1:f9:ce:84:1d:b1:f9:c5:97:de:ef:b9:f2:
                    a3:e9:bc:12:89:5e:a7:aa:52:ab:f8:23:27:cb:a4:
                    b1:9c:63:db:d7:99:7e:f0:0a:5e:eb:68:a6:f4:c6:
                    5a:47:0d:4d:10:33:e3:4e:b1:13:a3:c8:18:6c:4b:
                    ec:fc:09:90:df:9d:64:29:25:23:07:a1:b4:d2:3d:
                    2e:60:e0:cf:d2:09:87:bb:cd:48:f0:4d:c2:c2:7a:
                    88:8a:bb:ba:cf:59:19:d6:af:8f:b0:07:b0:9e:31:
                    f1:82:c1:c0:df:2e:a6:6d:6c:19:0e:b5:d8:7e:26:
                    1a:45:03:3d:b0:79:a4:94:28:ad:0f:7f:26:e5:a8:
                    08:fe:96:e8:3c:68:94:53:ee:83:3a:88:2b:15:96:
                    09:b2:e0:7a:8c:2e:75:d6:9c:eb:a7:56:64:8f:96:
                    4f:68:ae:3d:97:c2:84:8f:c0:bc:40:c0:0b:5c:bd:
                    f6:87:b3:35:6c:ac:18:50:7f:84:e0:4c:cd:92:d3:
                    20:e9:33:bc:52:99:af:32:b5:29:b3:25:2a:b4:48:
                    f9:72:e1:ca:64:f7:e6:82:10:8d:e8:9d:c2:8a:88:
                    fa:38:66:8a:fc:63:f9:01:f9:78:fd:7b:5c:77:fa:
                    76:87:fa:ec:df:b1:0e:79:95:57:b4:bd:26:ef:d6:
                    01:d1:eb:16:0a:bb:8e:0b:b5:c5:c5:8a:55:ab:d3:
                    ac:ea:91:4b:29:cc:19:a4:32:25:4e:2a:f1:65:44:
                    d0:02:ce:aa:ce:49:b4:ea:9f:7c:83:b0:40:7b:e7:
                    43:ab:a7:6c:a3:8f:7d:89:81:fa:4c:a5:ff:d5:8e:
                    c3:ce:4b:e0:b5:d8:b3:8e:45:cf:76:c0:ed:40:2b:
                    fd:53:0f:b0:a7:d5:3b:0d:b1:8a:a2:03:de:31:ad:
                    cc:77:ea:6f:7b:3e:d6:df:91:22:12:e6:be:fa:d8:
                    32:fc:10:63:14:51:72:de:5d:d6:16:93:bd:29:68:
                    33:ef:3a:66:ec:07:8a:26:df:13:d7:57:65:78:27:
                    de:5e:49:14:00:a2:00:7f:9a:a8:21:b6:a9:b1:95:
                    b0:a5:b9:0d:16:11:da:c7:6c:48:3c:40:e0:7e:0d:
                    5a:cd:56:3c:d1:97:05:b9:cb:4b:ed:39:4b:9c:c4:
                    3f:d2:55:13:6e:24:b0:d6:71:fa:f4:c1:ba:cc:ed:
                    1b:f5:fe:81:41:d8:00:98:3d:3a:c8:ae:7a:98:37:
                    18:05:95
                Exponent: 65537 (0x10001)
        X509v3 extensions:
            X509v3 Key Usage: critical
                Certificate Sign, CRL Sign
            X509v3 Basic Constraints: critical
                CA:TRUE
            X509v3 Subject Key Identifier: 
                E4:AF:2B:26:71:1A:2B:48:27:85:2F:52:66:2C:EF:F0:89:13:71:3E
    Signature Algorithm: sha384WithRSAEncryption
    Signature Value:
        38:96:0a:ee:3d:b4:96:1e:5f:ef:9d:9c:0b:33:9f:2b:e0:ca:
        fd:d2:8e:0a:1f:41:74:a5:7c:aa:84:d4:e5:f2:1e:e6:37:52:
        32:9c:0b:d1:61:1d:bf:28:c1:b6:44:29:35:75:77:98:b2:7c:
        d9:bd:74:ac:8a:68:e3:a9:31:09:29:01:60:73:e3:47:7c:53:
        a8:90:4a:27:ef:4b:d7:9f:93:e7:82:36:ce:9a:68:0c:82:e7:
        cf:d4:10:16:6f:5f:0e:99:5c:f6:1f:71:7d:ef:ef:7b:2f:7e:
        ea:36:d6:97:70:0b:15:ee:d7:5c:56:6a:33:a5:e3:49:38:0c:
        b8:7d:fb:8d:85:a4:b1:59:5e:f4:6a:e1:dd:a1:f6:64:44:ae:
        e6:51:83:21:66:c6:11:3e:f3:ce:47:ee:9c:28:1f:25:da:ff:
        ac:66:95:dd:35:0f:5c:ef:20:2c:62:fd:91:ba:a9:cc:fc:5a:
        9c:93:81:83:29:97:4a:7c:5a:72:b4:39:d0:b7:77:cb:79:fd:
        69:3a:92:37:ed:6e:38:65:46:7e:e9:60:bd:79:88:97:5f:38:
        12:f4:ee:af:5b:82:c8:86:d5:e1:99:6d:8c:04:f2:76:ba:49:
        f6:6e:e9:6d:1e:5f:a0:ef:27:82:76:40:f8:a6:d3:58:5c:0f:
        2c:42:da:42:c6:7b:88:34:c7:c1:d8:45:9b:c1:3e:c5:61:1d:
        d9:63:50:49:f6:34:85:6a:e0:18:c5:6e:47:ab:41:42:29:9b:
        f6:60:0d:d2:31:d3:63:98:23:93:5a:00:81:48:b4:ef:cd:8a:
        cd:c9:cf:99:ee:d9:9e:aa:36:e1:68:4b:71:49:14:36:28:3a:
        3d:1d:ce:9a:8f:25:e6:80:71:61:2b:b5:7b:cc:f9:25:16:81:
        e1:31:5f:a1:a3:7e:16:a4:9c:16:6a:97:18:bd:76:72:a5:0b:
        9e:1d:36:e6:2f:a1:2f:be:70:91:0f:a8:e6:da:f8:c4:92:40:
        6c:25:7e:7b:b3:09:dc:b2:17:ad:80:44:f0:68:a5:8f:94:75:
        ff:74:5a:e8:a8:02:7c:0c:09:e2:a9:4b:0b:a0:85:0b:62:b9:
        ef:a1:31:92:fb:ef:f6:51:04:89:6c:e8:a9:74:a1:bb:17:b3:
        b5:fd:49:0f:7c:3c:ec:83:18:20:43:4e:d5:93:ba:b4:34:b1:
        1f:16:36:1f:0c:e6:64:39:16:4c:dc:e0:fe:1d:c8:a9:62:3d:
        40:ea:ca:c5:34:02:b4:ae:89:88:33:35:dc:2c:13:73:d8:27:
        f1:d0:72:ee:75:3b:22:de:98:68:66:5b:f1:c6:63:47:55:1c:
        ba:a5:08:51:75:a6:48:25
-----BEGIN CERTIFICATE-----
MIIFWjCCA0KgAwIBAgIQbkepxUtHDA3sM9CJuRz04TANBgkqhkiG9w0BAQwFADBH
MQswCQYDVQQGEwJVUzEiMCAGA1UEChMZR29vZ2xlIFRydXN0IFNlcnZpY2VzIExM
QzEUMBIGA1UEAxMLR1RTIFJvb3QgUjEwHhcNMTYwNjIyMDAwMDAwWhcNMzYwNjIy
MDAwMDAwWjBHMQswCQYDVQQGEwJVUzEiMCAGA1UEChMZR29vZ2xlIFRydXN0IFNl
cnZpY2VzIExMQzEUMBIGA1UEAxMLR1RTIFJvb3QgUjEwggIiMA0GCSqGSIb3DQEB
AQUAA4ICDwAwggIKAoICAQC2EQKLHuOhd5s73L+UPreVp0A8of2C+X0yBoJx9vaM
f/vo27xqLpeXo4xL+Sv2sfnOhB2x+cWX3u+58qPpvBKJXqeqUqv4IyfLpLGcY9vX
mX7wCl7raKb0xlpHDU0QM+NOsROjyBhsS+z8CZDfnWQpJSMHobTSPS5g4M/SCYe7
zUjwTcLCeoiKu7rPWRnWr4+wB7CeMfGCwcDfLqZtbBkOtdh+JhpFAz2weaSUKK0P
fyblqAj+lug8aJRT7oM6iCsVlgmy4HqMLnXWnOunVmSPlk9orj2XwoSPwLxAwAtc
vfaHszVsrBhQf4TgTM2S0yDpM7xSma8ytSmzJSq0SPly4cpk9+aCEI3oncKKiPo4
Zor8Y/kB+Xj9e1x3+naH+uzfsQ55lVe0vSbv1gHR6xYKu44LtcXFilWr06zqkUsp
zBmkMiVOKvFlRNACzqrOSbTqn3yDsEB750Orp2yjj32JgfpMpf/VjsPOS+C12LOO
Rc92wO1AK/1TD7Cn1TsNsYqiA94xrcx36m97PtbfkSIS5r762DL8EGMUUXLeXdYW
k70paDPvOmbsB4om3xPXV2V4J95eSRQAogB/mqghtqmxlbCluQ0WEdrHbEg8QOB+
DVrNVjzRlwW5y0vtOUucxD/SVRNuJLDWcfr0wbrM7Rv1/oFB2ACYPTrIrnqYNxgF
lQIDAQABo0IwQDAOBgNVHQ8BAf8EBAMCAQYwDwYDVR0TAQH/BAUwAwEB/zAdBgNV
HQ4EFgQU5K8rJnEaK0gnhS9SZizv8IkTcT4wDQYJKoZIhvcNAQEMBQADggIBADiW
Cu49tJYeX++dnAsznyvgyv3SjgofQXSlfKqE1OXyHuY3UjKcC9FhHb8owbZEKTV1
d5iyfNm9dKyKaOOpMQkpAWBz40d8U6iQSifvS9efk+eCNs6aaAyC58/UEBZvXw6Z
XPYfcX3v73svfuo21pdwCxXu11xWajOl40k4DLh9+42FpLFZXvRq4d2h9mREruZR
gyFmxhE+885H7pwoHyXa/6xmld01D1zvICxi/ZG6qcz8WpyTgYMpl0p8WnK0OdC3
d8t5/Wk6kjftbjhlRn7pYL15iJdfOBL07q9bgsiG1eGZbYwE8na6SfZu6W0eX6Dv
J4J2QPim01hcDyxC2kLGe4g0x8HYRZvBPsVhHdljUEn2NIVq4BjFbkerQUIpm/Zg
DdIx02OYI5NaAIFItO/Nis3Jz5nu2Z6qNuFoS3FJFDYoOj0dzpqPJeaAcWErtXvM
+SUWgeExX6GjfhaknBZqlxi9dnKlC54dNuYvoS++cJEPqOba+MSSQGwlfnuzCdyy
F62ARPBopY+Udf90WuioAnwMCeKpSwughQtiue+hMZL77/ZRBIls6Kl0obsXs7X9
SQ98POyDGCBDTtWTurQ0sR8WNh8M5mQ5Fkzc4P4dyKliPUDqysU0ArSuiYgzNdws
E3PYJ/HQcu51OyLemGhmW/HGY0dVHLqlCFF1pkgl
-----END CERTIFICATE-----

Certificate:
    Data:
        Version: 3 (0x2)
        Serial Number:
            02:03:bc:53:59:6b:34:c7:18:f5:01:50:66
        Signature Algorithm: sha256WithRSAEncryption
        Issuer: C=US, O=Google Trust Services LLC, CN=GTS Root R1
        Validity
            Not Before: Aug 13 00:00:42 2020 GMT
            Not After : Sep 30 00:00:42 2027 GMT
        Subject: C=US, O=Google Trust Services LLC, CN=GTS CA 1C3
        Subject Public Key Info:
            Public Key Algorithm: rsaEncryption
                Public-Key: (2048 bit)
                Modulus:
                    00:f5:88:df:e7:62:8c:1e:37:f8:37:42:90:7f:6c:
                    87:d0:fb:65:82:25:fd:e8:cb:6b:a4:ff:6d:e9:5a:
                    23:e2:99:f6:1c:e9:92:03:99:13:7c:09:0a:8a:fa:
                    42:d6:5e:56:24:aa:7a:33:84:1f:d1:e9:69:bb:b9:
                    74:ec:57:4c:66:68:93:77:37:55:53:fe:39:10:4d:
                    b7:34:bb:5f:25:77:37:3b:17:94:ea:3c:e5:9d:d5:
                    bc:c3:b4:43:eb:2e:a7:47:ef:b0:44:11:63:d8:b4:
                    41:85:dd:41:30:48:93:1b:bf:b7:f6:e0:45:02:21:
                    e0:96:42:17:cf:d9:2b:65:56:34:07:26:04:0d:a8:
                    fd:7d:ca:2e:ef:ea:48:7c:37:4d:3f:00:9f:83:df:
                    ef:75:84:2e:79:57:5c:fc:57:6e:1a:96:ff:fc:8c:
                    9a:a6:99:be:25:d9:7f:96:2c:06:f7:11:2a:02:80:
                    80:eb:63:18:3c:50:49:87:e5:8a:ca:5f:19:2b:59:
                    96:81:00:a0:fb:51:db:ca:77:0b:0b:c9:96:4f:ef:
                    70:49:c7:5c:6d:20:fd:99:b4:b4:e2:ca:2e:77:fd:
                    2d:dc:0b:b6:6b:13:0c:8c:19:2b:17:96:98:b9:f0:
                    8b:f6:a0:27:bb:b6:e3:8d:51:8f:bd:ae:c7:9b:b1:
                    89:9d
                Exponent: 65537 (0x10001)
        X509v3 extensions:
            X509v3 Key Usage: critical
                Digital Signature, Certificate Sign, CRL Sign
            X509v3 Extended Key Usage: 
                TLS Web Server Authentication, TLS Web Client Authentication
            X509v3 Basic Constraints: critical
                CA:TRUE, pathlen:0
            X509v3 Subject Key Identifier: 
                8A:74:7F:AF:85:CD:EE:95:CD:3D:9C:D0:E2:46:14:F3:71:35:1D:27
            X509v3 Authority Key Identifier: 
                E4:AF:2B:26:71:1A:2B:48:27:85:2F:52:66:2C:EF:F0:89:13:71:3E
            Authority Information Access: 
                OCSP - URI:http://ocsp.pki.goog/gtsr1
                CA Issuers - URI:http://pki.goog/repo/certs/gtsr1.der
            X509v3 CRL Distribution Points: 
                Full Name:
                  URI:http://crl.pki.goog/gtsr1/gtsr1.crl
            X509v3 Certificate Policies: 
                Policy: 1.3.6.1.4.1.11129.2.5.3
                  CPS: https://pki.goog/repository/
                Policy: 2.23.140.1.2.1
                Policy: 2.23.140.1.2.2
    Signature Algorithm: sha256WithRSAEncryption
    Signature Value:
        89:7d:ac:20:5c:0c:3c:be:9a:a8:57:95:1b:b4:ae:fa:ab:a5:
        72:71:b4:36:95:fd:df:40:11:03:4c:c2:46:14:bb:14:24:ab:
        f0:50:71:22:db:ad:c4:6e:7f:cf:f1:6a:6f:c8:83:1b:d8:ce:
        89:5f:87:6c:87:b8:a9:0c:a3:9b:a1:62:94:93:95:df:5b:ae:
        66:19:0b:02:96:9e:fc:b5:e7:10:69:3e:7a:cb:46:49:5f:46:
        e1:41:b1:d7:98:4d:65:34:00:80:1a:3f:4f:9f:6c:7f:49:00:
        81:53:41:a4:92:21:82:82:1a:f1:a3:44:5b:2a:50:12:13:4d:
        c1:53:36:f3:42:08:af:54:fa:8e:77:53:1b:64:38:27:17:09:
        bd:58:c9:1b:7c:39:2d:5b:f3:ce:d4:ed:97:db:14:03:bf:09:
        53:24:1f:c2:0c:04:79:98:26:f2:61:f1:53:52:fd:42:8c:1b:
        66:2b:3f:15:a1:bb:ff:f6:9b:e3:81:9a:01:06:71:89:35:28:
        24:dd:e1:bd:eb:19:2d:e1:48:cb:3d:59:83:51:b4:74:c6:9d:
        7c:c6:b1:86:5b:af:cc:34:c4:d3:cc:d4:81:11:95:00:a1:f4:
        12:22:01:fa:b4:83:71:af:8c:b7:8c:73:24:ac:37:53:c2:00:
        90:3f:11:fe:5c:ed:36:94:10:3b:bd:29:ae:e2:c7:3a:62:3b:
        6c:63:d9:80:bf:59:71:ac:63:27:b9:4c:17:a0:da:f6:73:15:
        bf:2a:de:8f:f3:a5:6c:32:81:33:03:d0:86:51:71:99:34:ba:
        93:8d:5d:b5:51:58:f7:b2:93:e8:01:f6:59:be:71:9b:fd:4d:
        28:ce:cf:6d:c7:16:dc:f7:d1:d6:46:9b:a7:ca:6b:e9:77:0f:
        fd:a0:b6:1b:23:83:1d:10:1a:d9:09:00:84:e0:44:d3:a2:75:
        23:b3:34:86:f6:20:b0:a4:5e:10:1d:e0:52:46:00:9d:b1:0f:
        1f:21:70:51:f5:9a:dd:06:fc:55:f4:2b:0e:33:77:c3:4b:42:
        c2:f1:77:13:fc:73:80:94:eb:1f:bb:37:3f:ce:02:2a:66:b0:
        73:1d:32:a5:32:6c:32:b0:8e:e0:c4:23:ff:5b:7d:4d:65:70:
        ac:2b:9b:3d:ce:db:e0:6d:8e:32:80:be:96:9f:92:63:bc:97:
        bb:5d:b9:f4:e1:71:5e:2a:e4:ef:03:22:b1:8a:65:3a:8f:c0:
        93:65:d4:85:cd:0f:0f:5b:83:59:16:47:16:2d:9c:24:3a:c8:
        80:a6:26:14:85:9b:f6:37:9b:ac:6f:f9:c5:c3:06:51:f3:e2:
        7f:c5:b1:10:ba:51:f4:dd
-----BEGIN CERTIFICATE-----
MIIFljCCA36gAwIBAgINAgO8U1lrNMcY9QFQZjANBgkqhkiG9w0BAQsFADBHMQsw
CQYDVQQGEwJVUzEiMCAGA1UEChMZR29vZ2xlIFRydXN0IFNlcnZpY2VzIExMQzEU
MBIGA1UEAxMLR1RTIFJvb3QgUjEwHhcNMjAwODEzMDAwMDQyWhcNMjcwOTMwMDAw
MDQyWjBGMQswCQYDVQQGEwJVUzEiMCAGA1UEChMZR29vZ2xlIFRydXN0IFNlcnZp
Y2VzIExMQzETMBEGA1UEAxMKR1RTIENBIDFDMzCCASIwDQYJKoZIhvcNAQEBBQAD
ggEPADCCAQoCggEBAPWI3+dijB43+DdCkH9sh9D7ZYIl/ejLa6T/belaI+KZ9hzp
kgOZE3wJCor6QtZeViSqejOEH9Hpabu5dOxXTGZok3c3VVP+ORBNtzS7XyV3NzsX
lOo85Z3VvMO0Q+sup0fvsEQRY9i0QYXdQTBIkxu/t/bgRQIh4JZCF8/ZK2VWNAcm
BA2o/X3KLu/qSHw3TT8An4Pf73WELnlXXPxXbhqW//yMmqaZviXZf5YsBvcRKgKA
gOtjGDxQSYflispfGStZloEAoPtR28p3CwvJlk/vcEnHXG0g/Zm0tOLKLnf9LdwL
tmsTDIwZKxeWmLnwi/agJ7u2441Rj72ux5uxiZ0CAwEAAaOCAYAwggF8MA4GA1Ud
DwEB/wQEAwIBhjAdBgNVHSUEFjAUBggrBgEFBQcDAQYIKwYBBQUHAwIwEgYDVR0T
AQH/BAgwBgEB/wIBADAdBgNVHQ4EFgQUinR/r4XN7pXNPZzQ4kYU83E1HScwHwYD
VR0jBBgwFoAU5K8rJnEaK0gnhS9SZizv8IkTcT4waAYIKwYBBQUHAQEEXDBaMCYG
CCsGAQUFBzABhhpodHRwOi8vb2NzcC5wa2kuZ29vZy9ndHNyMTAwBggrBgEFBQcw
AoYkaHR0cDovL3BraS5nb29nL3JlcG8vY2VydHMvZ3RzcjEuZGVyMDQGA1UdHwQt
MCswKaAnoCWGI2h0dHA6Ly9jcmwucGtpLmdvb2cvZ3RzcjEvZ3RzcjEuY3JsMFcG
A1UdIARQME4wOAYKKwYBBAHWeQIFAzAqMCgGCCsGAQUFBwIBFhxodHRwczovL3Br
aS5nb29nL3JlcG9zaXRvcnkvMAgGBmeBDAECATAIBgZngQwBAgIwDQYJKoZIhvcN
AQELBQADggIBAIl9rCBcDDy+mqhXlRu0rvqrpXJxtDaV/d9AEQNMwkYUuxQkq/BQ
cSLbrcRuf8/xam/IgxvYzolfh2yHuKkMo5uhYpSTld9brmYZCwKWnvy15xBpPnrL
RklfRuFBsdeYTWU0AIAaP0+fbH9JAIFTQaSSIYKCGvGjRFsqUBITTcFTNvNCCK9U
+o53UxtkOCcXCb1YyRt8OS1b887U7ZfbFAO/CVMkH8IMBHmYJvJh8VNS/UKMG2Yr
PxWhu//2m+OBmgEGcYk1KCTd4b3rGS3hSMs9WYNRtHTGnXzGsYZbr8w0xNPM1IER
lQCh9BIiAfq0g3GvjLeMcySsN1PCAJA/Ef5c7TaUEDu9Ka7ixzpiO2xj2YC/WXGs
Yye5TBeg2vZzFb8q3o/zpWwygTMD0IZRcZk0upONXbVRWPeyk+gB9lm+cZv9TSjO
z23HFtz30dZGm6fKa+l3D/2gthsjgx0QGtkJAITgRNOidSOzNIb2ILCkXhAd4FJG
AJ2xDx8hcFH1mt0G/FX0Kw4zd8NLQsLxdxP8c4CU6x+7Nz/OAipmsHMdMqUybDKw
juDEI/9bfU1lcKwrmz3O2+BtjjKAvpafkmO8l7tdufThcV4q5O8DIrGKZTqPwJNl
1IXNDw9bg1kWRxYtnCQ6yICmJhSFm/Y3m6xv+cXDBlHz4n/FsRC6UfTd
-----END CERTIFICATE-----

Certificate:
    Data:
        Version: 3 (0x2)
        Serial Number:
            b7:9f:fa:44:9c:7b:80:b0:0a:cb:f8:7c:98:bf:df:18
        Signature Algorithm: sha256WithRSAEncryption
        Issuer: C=US, O=Google Trust Services LLC, CN=GTS CA 1C3
        Validity
            Not Before: Jan  2 13:02:52 2024 GMT
            Not After : Mar 26 13:02:51 2024 GMT
        Subject: CN=*.google.com
        Subject Public Key Info:
            Public Key Algorithm: id-ecPublicKey
                Public-Key: (256 bit)
                pub:
                    04:9e:5a:5a:c5:4b:9e:16:f6:e5:af:14:05:fa:65:
                    dd:a3:4b:c2:78:6a:b3:a7:e3:b4:eb:c4:3d:98:7e:
                    cb:5e:3c:2c:b8:8d:30:48:4c:43:40:4a:3e:34:bb:
                    c3:e3:2e:50:25:94:cb:96:71:a7:8e:40:23:15:3b:
                    08:08:60:ee:46
                ASN1 OID: prime256v1
                NIST CURVE: P-256
        X509v3 extensions:
            X509v3 Key Usage: critical
                Digital Signature
            X509v3 Extended Key Usage: 
                TLS Web Server Authentication
            X509v3 Basic Constraints: critical
                CA:FALSE
            X509v3 Subject Key Identifier: 
                E2:38:09:86:CD:8E:1D:E9:78:65:BE:13:B6:50:54:30:7A:82:18:1C
            X509v3 Authority Key Identifier: 
                8A:74:7F:AF:85:CD:EE:95:CD:3D:9C:D0:E2:46:14:F3:71:35:1D:27
            Authority Information Access: 
                OCSP - URI:http://ocsp.pki.goog/gts1c3
                CA Issuers - URI:http://pki.goog/repo/certs/gts1c3.der
            X509v3 Subject Alternative Name: 
                DNS:*.google.com, DNS:*.appengine.google.com, DNS:*.bdn.dev, DNS:*.origin-test.bdn.dev, DNS:*.cloud.google.com, DNS:*.crowdsource.google.com, DNS:*.datacompute.google.com, DNS:*.google.ca, DNS:*.google.cl, DNS:*.google.co.in, DNS:*.google.co.jp, DNS:*.google.co.uk, DNS:*.google.com.ar, DNS:*.google.com.au, DNS:*.google.com.br, DNS:*.google.com.co, DNS:*.google.com.mx, DNS:*.google.com.tr, DNS:*.google.com.vn, DNS:*.google.de, DNS:*.google.es, DNS:*.google.fr, DNS:*.google.hu, DNS:*.google.it, DNS:*.google.nl, DNS:*.google.pl, DNS:*.google.pt, DNS:*.googleadapis.com, DNS:*.googleapis.cn, DNS:*.googlevideo.com, DNS:*.gstatic.cn, DNS:*.gstatic-cn.com, DNS:googlecnapps.cn, DNS:*.googlecnapps.cn, DNS:googleapps-cn.com, DNS:*.googleapps-cn.com, DNS:gkecnapps.cn, DNS:*.gkecnapps.cn, DNS:googledownloads.cn, DNS:*.googledownloads.cn, DNS:recaptcha.net.cn, DNS:*.recaptcha.net.cn, DNS:recaptcha-cn.net, DNS:*.recaptcha-cn.net, DNS:widevine.cn, DNS:*.widevine.cn, DNS:ampproject.org.cn, DNS:*.ampproject.org.cn, DNS:ampproject.net.cn, DNS:*.ampproject.net.cn, DNS:google-analytics-cn.com, DNS:*.google-analytics-cn.com, DNS:googleadservices-cn.com, DNS:*.googleadservices-cn.com, DNS:googlevads-cn.com, DNS:*.googlevads-cn.com, DNS:googleapis-cn.com, DNS:*.googleapis-cn.com, DNS:googleoptimize-cn.com, DNS:*.googleoptimize-cn.com, DNS:doubleclick-cn.net, DNS:*.doubleclick-cn.net, DNS:*.fls.doubleclick-cn.net, DNS:*.g.doubleclick-cn.net, DNS:doubleclick.cn, DNS:*.doubleclick.cn, DNS:*.fls.doubleclick.cn, DNS:*.g.doubleclick.cn, DNS:dartsearch-cn.net, DNS:*.dartsearch-cn.net, DNS:googletraveladservices-cn.com, DNS:*.googletraveladservices-cn.com, DNS:googletagservices-cn.com, DNS:*.googletagservices-cn.com, DNS:googletagmanager-cn.com, DNS:*.googletagmanager-cn.com, DNS:googlesyndication-cn.com, DNS:*.googlesyndication-cn.com, DNS:*.safeframe.googlesyndication-cn.com, DNS:app-measurement-cn.com, DNS:*.app-measurement-cn.com, DNS:gvt1-cn.com, DNS:*.gvt1-cn.com, DNS:gvt2-cn.com, DNS:*.gvt2-cn.com, DNS:2mdn-cn.net, DNS:*.2mdn-cn.net, DNS:googleflights-cn.net, DNS:*.googleflights-cn.net, DNS:admob-cn.com, DNS:*.admob-cn.com, DNS:googlesandbox-cn.com, DNS:*.googlesandbox-cn.com, DNS:*.safenup.googlesandbox-cn.com, DNS:*.gstatic.com, DNS:*.metric.gstatic.com, DNS:*.gvt1.com, DNS:*.gcpcdn.gvt1.com, DNS:*.gvt2.com, DNS:*.gcp.gvt2.com, DNS:*.url.google.com, DNS:*.youtube-nocookie.com, DNS:*.ytimg.com, DNS:android.com, DNS:*.android.com, DNS:*.flash.android.com, DNS:g.cn, DNS:*.g.cn, DNS:g.co, DNS:*.g.co, DNS:goo.gl, DNS:www.goo.gl, DNS:google-analytics.com, DNS:*.google-analytics.com, DNS:google.com, DNS:googlecommerce.com, DNS:*.googlecommerce.com, DNS:ggpht.cn, DNS:*.ggpht.cn, DNS:urchin.com, DNS:*.urchin.com, DNS:youtu.be, DNS:youtube.com, DNS:*.youtube.com, DNS:youtubeeducation.com, DNS:*.youtubeeducation.com, DNS:youtubekids.com, DNS:*.youtubekids.com, DNS:yt.be, DNS:*.yt.be, DNS:android.clients.google.com, DNS:developer.android.google.cn, DNS:developers.android.google.cn, DNS:source.android.google.cn, DNS:developer.chrome.google.cn, DNS:web.developers.google.cn
            X509v3 Certificate Policies: 
                Policy: 2.23.140.1.2.1
                Policy: 1.3.6.1.4.1.11129.2.5.3
            X509v3 CRL Distribution Points: 
                Full Name:
                  URI:http://crls.pki.goog/gts1c3/QqFxbi9M48c.crl
            CT Precertificate SCTs: 
                Signed Certificate Timestamp:
                    Version   : v1 (0x0)
                    Log ID    : 76:FF:88:3F:0A:B6:FB:95:51:C2:61:CC:F5:87:BA:34:
                                B4:A4:CD:BB:29:DC:68:42:0A:9F:E6:67:4C:5A:3A:74
                    Timestamp : Jan  2 14:02:54.249 2024 GMT
                    Extensions: none
                    Signature : ecdsa-with-SHA256
                                30:45:02:20:17:DF:B6:E2:05:1D:10:F1:B3:29:9C:8F:
                                3E:D8:75:AA:B2:22:C4:E8:48:95:16:3B:85:5C:8C:4D:
                                CD:90:92:13:02:21:00:C4:D5:99:19:FE:05:A7:DE:BF:
                                76:53:A9:6B:BC:E9:A3:49:5E:EB:9C:1A:8F:D4:32:5C:
                                8A:D2:FF:4E:0B:D7:C3
                Signed Certificate Timestamp:
                    Version   : v1 (0x0)
                    Log ID    : DA:B6:BF:6B:3F:B5:B6:22:9F:9B:C2:BB:5C:6B:E8:70:
                                91:71:6C:BB:51:84:85:34:BD:A4:3D:30:48:D7:FB:AB
                    Timestamp : Jan  2 14:02:55.262 2024 GMT
                    Extensions: none
                    Signature : ecdsa-with-SHA256
                                30:45:02:20:2F:FE:A0:39:23:38:8B:F0:8A:C3:E3:B9:
                                13:6D:37:54:02:05:1F:59:41:A1:F0:BD:10:69:97:D4:
                                42:A6:0C:E6:02:21:00:D0:B9:07:3F:DD:F3:E0:B7:C2:
                                D5:7B:8D:5C:B9:E3:53:EB:83:1A:93:0B:61:A4:37:EB:
                                1A:B3:AE:CD:7F:A1:BE
    Signature Algorithm: sha256WithRSAEncryption
    Signature Value:
        26:75:db:47:4a:62:c0:e7:46:28:39:dd:82:3f:83:5e:2a:dd:
        b4:28:e9:f3:ec:e2:35:d2:0c:d0:53:04:af:cf:41:8e:ac:ac:
        77:66:dc:49:81:d4:e3:4f:9e:e2:8b:f7:6b:b1:96:45:61:6f:
        93:79:74:8d:cc:fa:c2:9b:58:c4:c7:a3:f4:bd:15:e6:b6:6f:
        35:9a:35:8a:eb:21:95:a4:7b:37:86:e0:b8:0c:bf:4a:13:81:
        b1:2b:e0:4d:f2:88:cb:9f:47:03:0c:61:7c:a7:94:36:78:97:
        4e:d3:e6:07:0f:6f:d5:80:b9:ae:01:88:d4:19:91:9d:0b:75:
        3b:3f:e9:76:07:23:36:4d:0e:71:5b:31:0c:8c:61:b2:52:f3:
        1c:e7:75:fd:6b:1a:e3:83:71:aa:50:20:79:a4:82:0b:ee:bc:
        e1:88:6c:dd:f5:44:0b:32:b4:e3:9e:1d:a6:45:64:83:df:99:
        25:3e:40:d3:d7:ee:3f:0a:d9:92:21:e5:7a:89:2c:a8:14:80:
        6f:13:1f:35:3d:a4:1a:01:cc:86:61:5e:2b:0a:00:8e:09:e1:
        e4:8e:23:a4:25:4d:a9:31:08:ac:a8:53:e4:40:1f:17:41:fb:
        06:28:6a:ed:8a:86:36:49:b0:02:dd:74:3d:d1:49:37:72:ef:
        03:c4:da:2f
-----BEGIN CERTIFICATE-----
MIIOcjCCDVqgAwIBAgIRALef+kSce4CwCsv4fJi/3xgwDQYJKoZIhvcNAQELBQAw
RjELMAkGA1UEBhMCVVMxIjAgBgNVBAoTGUdvb2dsZSBUcnVzdCBTZXJ2aWNlcyBM
TEMxEzARBgNVBAMTCkdUUyBDQSAxQzMwHhcNMjQwMTAyMTMwMjUyWhcNMjQwMzI2
MTMwMjUxWjAXMRUwEwYDVQQDDAwqLmdvb2dsZS5jb20wWTATBgcqhkjOPQIBBggq
hkjOPQMBBwNCAASeWlrFS54W9uWvFAX6Zd2jS8J4arOn47TrxD2YfstePCy4jTBI
TENASj40u8PjLlAllMuWcaeOQCMVOwgIYO5Go4IMUzCCDE8wDgYDVR0PAQH/BAQD
AgeAMBMGA1UdJQQMMAoGCCsGAQUFBwMBMAwGA1UdEwEB/wQCMAAwHQYDVR0OBBYE
FOI4CYbNjh3peGW+E7ZQVDB6ghgcMB8GA1UdIwQYMBaAFIp0f6+Fze6VzT2c0OJG
FPNxNR0nMGoGCCsGAQUFBwEBBF4wXDAnBggrBgEFBQcwAYYbaHR0cDovL29jc3Au
cGtpLmdvb2cvZ3RzMWMzMDEGCCsGAQUFBzAChiVodHRwOi8vcGtpLmdvb2cvcmVw
by9jZXJ0cy9ndHMxYzMuZGVyMIIKAwYDVR0RBIIJ+jCCCfaCDCouZ29vZ2xlLmNv
bYIWKi5hcHBlbmdpbmUuZ29vZ2xlLmNvbYIJKi5iZG4uZGV2ghUqLm9yaWdpbi10
ZXN0LmJkbi5kZXaCEiouY2xvdWQuZ29vZ2xlLmNvbYIYKi5jcm93ZHNvdXJjZS5n
b29nbGUuY29tghgqLmRhdGFjb21wdXRlLmdvb2dsZS5jb22CCyouZ29vZ2xlLmNh
ggsqLmdvb2dsZS5jbIIOKi5nb29nbGUuY28uaW6CDiouZ29vZ2xlLmNvLmpwgg4q
Lmdvb2dsZS5jby51a4IPKi5nb29nbGUuY29tLmFygg8qLmdvb2dsZS5jb20uYXWC
DyouZ29vZ2xlLmNvbS5icoIPKi5nb29nbGUuY29tLmNvgg8qLmdvb2dsZS5jb20u
bXiCDyouZ29vZ2xlLmNvbS50coIPKi5nb29nbGUuY29tLnZuggsqLmdvb2dsZS5k
ZYILKi5nb29nbGUuZXOCCyouZ29vZ2xlLmZyggsqLmdvb2dsZS5odYILKi5nb29n
bGUuaXSCCyouZ29vZ2xlLm5sggsqLmdvb2dsZS5wbIILKi5nb29nbGUucHSCEiou
Z29vZ2xlYWRhcGlzLmNvbYIPKi5nb29nbGVhcGlzLmNughEqLmdvb2dsZXZpZGVv
LmNvbYIMKi5nc3RhdGljLmNughAqLmdzdGF0aWMtY24uY29tgg9nb29nbGVjbmFw
cHMuY26CESouZ29vZ2xlY25hcHBzLmNughFnb29nbGVhcHBzLWNuLmNvbYITKi5n
b29nbGVhcHBzLWNuLmNvbYIMZ2tlY25hcHBzLmNugg4qLmdrZWNuYXBwcy5jboIS
Z29vZ2xlZG93bmxvYWRzLmNughQqLmdvb2dsZWRvd25sb2Fkcy5jboIQcmVjYXB0
Y2hhLm5ldC5jboISKi5yZWNhcHRjaGEubmV0LmNughByZWNhcHRjaGEtY24ubmV0
ghIqLnJlY2FwdGNoYS1jbi5uZXSCC3dpZGV2aW5lLmNugg0qLndpZGV2aW5lLmNu
ghFhbXBwcm9qZWN0Lm9yZy5jboITKi5hbXBwcm9qZWN0Lm9yZy5jboIRYW1wcHJv
amVjdC5uZXQuY26CEyouYW1wcHJvamVjdC5uZXQuY26CF2dvb2dsZS1hbmFseXRp
Y3MtY24uY29tghkqLmdvb2dsZS1hbmFseXRpY3MtY24uY29tghdnb29nbGVhZHNl
cnZpY2VzLWNuLmNvbYIZKi5nb29nbGVhZHNlcnZpY2VzLWNuLmNvbYIRZ29vZ2xl
dmFkcy1jbi5jb22CEyouZ29vZ2xldmFkcy1jbi5jb22CEWdvb2dsZWFwaXMtY24u
Y29tghMqLmdvb2dsZWFwaXMtY24uY29tghVnb29nbGVvcHRpbWl6ZS1jbi5jb22C
FyouZ29vZ2xlb3B0aW1pemUtY24uY29tghJkb3VibGVjbGljay1jbi5uZXSCFCou
ZG91YmxlY2xpY2stY24ubmV0ghgqLmZscy5kb3VibGVjbGljay1jbi5uZXSCFiou
Zy5kb3VibGVjbGljay1jbi5uZXSCDmRvdWJsZWNsaWNrLmNughAqLmRvdWJsZWNs
aWNrLmNughQqLmZscy5kb3VibGVjbGljay5jboISKi5nLmRvdWJsZWNsaWNrLmNu
ghFkYXJ0c2VhcmNoLWNuLm5ldIITKi5kYXJ0c2VhcmNoLWNuLm5ldIIdZ29vZ2xl
dHJhdmVsYWRzZXJ2aWNlcy1jbi5jb22CHyouZ29vZ2xldHJhdmVsYWRzZXJ2aWNl
cy1jbi5jb22CGGdvb2dsZXRhZ3NlcnZpY2VzLWNuLmNvbYIaKi5nb29nbGV0YWdz
ZXJ2aWNlcy1jbi5jb22CF2dvb2dsZXRhZ21hbmFnZXItY24uY29tghkqLmdvb2ds
ZXRhZ21hbmFnZXItY24uY29tghhnb29nbGVzeW5kaWNhdGlvbi1jbi5jb22CGiou
Z29vZ2xlc3luZGljYXRpb24tY24uY29tgiQqLnNhZmVmcmFtZS5nb29nbGVzeW5k
aWNhdGlvbi1jbi5jb22CFmFwcC1tZWFzdXJlbWVudC1jbi5jb22CGCouYXBwLW1l
YXN1cmVtZW50LWNuLmNvbYILZ3Z0MS1jbi5jb22CDSouZ3Z0MS1jbi5jb22CC2d2
dDItY24uY29tgg0qLmd2dDItY24uY29tggsybWRuLWNuLm5ldIINKi4ybWRuLWNu
Lm5ldIIUZ29vZ2xlZmxpZ2h0cy1jbi5uZXSCFiouZ29vZ2xlZmxpZ2h0cy1jbi5u
ZXSCDGFkbW9iLWNuLmNvbYIOKi5hZG1vYi1jbi5jb22CFGdvb2dsZXNhbmRib3gt
Y24uY29tghYqLmdvb2dsZXNhbmRib3gtY24uY29tgh4qLnNhZmVudXAuZ29vZ2xl
c2FuZGJveC1jbi5jb22CDSouZ3N0YXRpYy5jb22CFCoubWV0cmljLmdzdGF0aWMu
Y29tggoqLmd2dDEuY29tghEqLmdjcGNkbi5ndnQxLmNvbYIKKi5ndnQyLmNvbYIO
Ki5nY3AuZ3Z0Mi5jb22CECoudXJsLmdvb2dsZS5jb22CFioueW91dHViZS1ub2Nv
b2tpZS5jb22CCyoueXRpbWcuY29tggthbmRyb2lkLmNvbYINKi5hbmRyb2lkLmNv
bYITKi5mbGFzaC5hbmRyb2lkLmNvbYIEZy5jboIGKi5nLmNuggRnLmNvggYqLmcu
Y2+CBmdvby5nbIIKd3d3Lmdvby5nbIIUZ29vZ2xlLWFuYWx5dGljcy5jb22CFiou
Z29vZ2xlLWFuYWx5dGljcy5jb22CCmdvb2dsZS5jb22CEmdvb2dsZWNvbW1lcmNl
LmNvbYIUKi5nb29nbGVjb21tZXJjZS5jb22CCGdncGh0LmNuggoqLmdncGh0LmNu
ggp1cmNoaW4uY29tggwqLnVyY2hpbi5jb22CCHlvdXR1LmJlggt5b3V0dWJlLmNv
bYINKi55b3V0dWJlLmNvbYIUeW91dHViZWVkdWNhdGlvbi5jb22CFioueW91dHVi
ZWVkdWNhdGlvbi5jb22CD3lvdXR1YmVraWRzLmNvbYIRKi55b3V0dWJla2lkcy5j
b22CBXl0LmJlggcqLnl0LmJlghphbmRyb2lkLmNsaWVudHMuZ29vZ2xlLmNvbYIb
ZGV2ZWxvcGVyLmFuZHJvaWQuZ29vZ2xlLmNughxkZXZlbG9wZXJzLmFuZHJvaWQu
Z29vZ2xlLmNughhzb3VyY2UuYW5kcm9pZC5nb29nbGUuY26CGmRldmVsb3Blci5j
aHJvbWUuZ29vZ2xlLmNughh3ZWIuZGV2ZWxvcGVycy5nb29nbGUuY24wIQYDVR0g
BBowGDAIBgZngQwBAgEwDAYKKwYBBAHWeQIFAzA8BgNVHR8ENTAzMDGgL6Athito
dHRwOi8vY3Jscy5wa2kuZ29vZy9ndHMxYzMvUXFGeGJpOU00OGMuY3JsMIIBBAYK
KwYBBAHWeQIEAgSB9QSB8gDwAHYAdv+IPwq2+5VRwmHM9Ye6NLSkzbsp3GhCCp/m
Z0xaOnQAAAGMynwDqQAABAMARzBFAiAX37biBR0Q8bMpnI8+2HWqsiLE6EiVFjuF
XIxNzZCSEwIhAMTVmRn+Bafev3ZTqWu86aNJXuucGo/UMlyK0v9OC9fDAHYA2ra/
az+1tiKfm8K7XGvocJFxbLtRhIU0vaQ9MEjX+6sAAAGMynwHngAABAMARzBFAiAv
/qA5IziL8IrD47kTbTdUAgUfWUGh8L0QaZfUQqYM5gIhANC5Bz/d8+C3wtV7jVy5
41PrgxqTC2GkN+sas67Nf6G+MA0GCSqGSIb3DQEBCwUAA4IBAQAmddtHSmLA50Yo
Od2CP4NeKt20KOnz7OI10gzQUwSvz0GOrKx3ZtxJgdTjT57ii/drsZZFYW+TeXSN
zPrCm1jEx6P0vRXmtm81mjWK6yGVpHs3huC4DL9KE4GxK+BN8ojLn0cDDGF8p5Q2
eJdO0+YHD2/VgLmuAYjUGZGdC3U7P+l2ByM2TQ5xWzEMjGGyUvMc53X9axrjg3Gq
UCB5pIIL7rzhiGzd9UQLMrTjnh2mRWSD35klPkDT1+4/CtmSIeV6iSyoFIBvEx81
PaQaAcyGYV4rCgCOCeHkjiOkJU2pMQisqFPkQB8XQfsGKGrtioY2SbAC3XQ90Uk3
cu8DxNov
-----END CERTIFICATE-----

